(dp0
S'W85ABC'
p1
(dp2
S'lat'
p3
F42.35498173
sS'lon'
p4
F-71.10390088
sS'name'
p5
VWestgate (ABC)
p6
ssS'E19'
p7
(dp8
g3
F42.36212903
sg4
F-71.08795244
sg5
VFord Building (E19)
p9
ssS'E34'
p10
(dp11
g3
F42.36144968
sg4
F-71.08595263
sg5
VBuilding E34
p12
ssS'E33'
p13
(dp14
g3
F42.3612902
sg4
F-71.08598431
sg5
VRinaldi Tile
p15
ssS'W85DE'
p16
(dp17
g3
F42.35537462
sg4
F-71.10394805
sg5
VWestgate (DE)
p18
ssS'E18'
p19
(dp20
g3
F42.36176699
sg4
F-71.08779281
sg5
VFord Building (E18)
p21
ssS'42'
p22
(dp23
g3
F42.36111135
sg4
F-71.09350699
sg5
VPower Plant
p24
ssS'W70'
p25
(dp26
g3
F42.35515969
sg4
F-71.10054488
sg5
VNew House
p27
ssS'E38'
p28
(dp29
g3
F42.36215008
sg4
F-71.08587855
sg5
VSuffolk Building
p30
ssS'62'
p31
(dp32
g3
F42.3602292
sg4
F-71.0886829
sg5
VEast Campus
p33
ssS'64'
p34
(dp35
g3
F42.36040462
sg4
F-71.08814116
sg5
g33
ssS'W20'
p36
(dp37
g3
F42.35904262
sg4
F-71.09477492
sg5
VStratton Student Center
p38
ssS'7A'
p39
(dp40
g3
F42.35949677
sg4
F-71.0931932
sg5
VBuilding 7A
p41
ssS'68'
p42
(dp43
g3
F42.36163372
sg4
F-71.08863211
sg5
VKoch Biology Building
p44
ssS'41'
p45
(dp46
g3
F42.36076429
sg4
F-71.09415877
sg5
VBuilding 41
p47
ssS'NW86'
p48
(dp49
g3
F42.35972041
sg4
F-71.10221874
sg5
VSidney Pacific
p50
ssS'24'
p51
(dp52
g3
F42.36066546
sg4
F-71.09201452
sg5
VBuilding 24
p53
ssS'12A'
p54
(dp55
g3
F42.3601439
sg4
F-71.09116915
sg5
VWaste Chemical Storage
p56
ssS'26'
p57
(dp58
g3
F42.36085902
sg4
F-71.09115131
sg5
VCompton Laboratories
p59
ssS'W51C'
p60
(dp61
g3
F42.35618525
sg4
F-71.09724555
sg5
VW51C
p62
ssS'W61'
p63
(dp64
g3
F42.35546191
sg4
F-71.09954637
sg5
VMacGregor House
p65
ssS'W85HJK'
p66
(dp67
g3
F42.35545034
sg4
F-71.10315273
sg5
VWestgate (HJK)
p68
ssS'W64'
p69
(dp70
g3
F42.35771026
sg4
F-71.10042056
sg5
VThe David H. Koch Childcare Center
p71
ssS'N16A'
p72
(dp73
g3
F42.36124153
sg4
F-71.09436747
sg5
VBuilding N16A
p74
ssS'N16C'
p75
(dp76
g3
F42.36109865
sg4
F-71.09449575
sg5
VBuilding N16C
p77
ssS'2'
p78
(dp79
g3
F42.35881411
sg4
F-71.09018586
sg5
VBuilding 2
p80
ssS'4'
p81
(dp82
g3
F42.35944571
sg4
F-71.09108473
sg5
VMaclaurin Buildings (4)
p83
ssS'6'
p84
(dp85
g3
F42.35953993
sg4
F-71.09045076
sg5
VEastman Laboratories
p86
ssS'NW12'
p87
(dp88
g3
F42.36010452
sg4
F-71.0968583
sg5
VBuilding NW12
p89
ssS'8'
p90
(dp91
g3
F42.35999321
sg4
F-71.09086152
sg5
VBuilding 8
p92
ssS'GALLERY'
p93
(dp94
g3
F42.35918158
sg4
F-71.08928119
sg5
VHayden Memorial Library
p95
ssS'18'
p96
(dp97
g3
F42.36006224
sg4
F-71.08981351
sg5
VDreyfus Building
p98
ssS'E25'
p99
(dp100
g3
F42.36166709
sg4
F-71.08693798
sg5
VWhitaker College
p101
ssS'NW61'
p102
(dp103
g3
F42.36184456
sg4
F-71.09828582
sg5
VRandom Hall
p104
ssS'W91'
p105
(dp106
g3
F42.35432356
sg4
F-71.10442611
sg5
VInformation Services & Technology Operations
p107
ssS'E23'
p108
(dp109
g3
F42.36102212
sg4
F-71.08663215
sg5
VHealth Services
p110
ssS'STORAGE'
p111
(dp112
g3
F42.36301136
sg4
F-71.09882964
sg5
VBuilding N57
p113
ssS'NW15'
p114
(dp115
g3
F42.35934904
sg4
F-71.0982566
sg5
VFrancis Bitter Magnet Lab (NW15)
p116
ssS'N10'
p117
(dp118
g3
F42.36086329
sg4
F-71.09545095
sg5
VHigh Voltage Research Lab
p119
ssS'W98'
p120
(dp121
g3
F42.35395541
sg4
F-71.10664514
sg5
VBuilding W98
p122
ssS'N9'
p123
(dp124
g3
F42.3609532
sg4
F-71.09519377
sg5
VSuperconducting Test Facility
p125
ssS'GOODALE'
p126
(dp127
g3
F42.36040462
sg4
F-71.08814116
sg5
g33
ssS'6C'
p128
(dp129
g3
F42.35967251
sg4
F-71.09083639
sg5
VPDSI (Physics, DMSE, Spectroscopy, Infrastructure)
p130
ssS'E60'
p131
(dp132
g3
F42.3611773
sg4
F-71.08217567
sg5
VArthur D Little Building
p133
ssS'W71'
p134
(dp135
g3
F42.35471738
sg4
F-71.10191653
sg5
VNext House
p136
ssS'E62'
p137
(dp138
g3
F42.36135174
sg4
F-71.08264775
sg5
VMIT Sloan
p139
ssS'N4'
p140
(dp141
g3
F42.36203428
sg4
F-71.09278036
sg5
VAlbany Garage
p142
ssS'W56'
p143
(dp144
g3
F42.35860598
sg4
F-71.09840289
sg5
VW56
p145
ssS'11'
p146
(dp147
g3
F42.35952274
sg4
F-71.09277158
sg5
VHomberg Building
p148
ssS'10'
p149
(dp150
g3
F42.35967402
sg4
F-71.09201372
sg5
VMaclaurin Buildings (10)
p151
ssS'6B'
p152
(dp153
g3
F42.35941091
sg4
F-71.09067484
sg5
VBuilding 6B
p154
ssS'12'
p155
(dp156
g3
F42.36020219
sg4
F-71.09156174
sg5
VBuilding 12
p157
ssS'W57'
p158
(dp159
g3
F42.35851726
sg4
F-71.0985892
sg5
VW57
p160
ssS'14'
p161
(dp162
g3
F42.35918158
sg4
F-71.08928119
sg5
g95
ssS'17'
p163
(dp164
g3
F42.36011426
sg4
F-71.0934932
sg5
VWright Brothers Wind Tunnel
p165
ssS'16'
p166
(dp167
g3
F42.36043545
sg4
F-71.09059075
sg5
VDorrance Building
p168
ssS'54'
p169
(dp170
g3
F42.36032385
sg4
F-71.08932614
sg5
VGreen Building
p171
ssS'57'
p172
(dp173
g3
F42.36114626
sg4
F-71.09013351
sg5
VWang Fitness Center and Alumni Pool
p174
ssS'56'
p175
(dp176
g3
F42.36070073
sg4
F-71.08986035
sg5
VWhitaker Building
p177
ssS'W13'
p178
(dp179
g3
F42.3585339
sg4
F-71.09369718
sg5
VBexley Hall
p180
ssS'50'
p181
(dp182
g3
F42.35936241
sg4
F-71.0883196
sg5
VWalker Memorial
p183
ssS'W11'
p184
(dp185
g3
F42.35826109
sg4
F-71.09353577
sg5
VBuilding W11
p186
ssS'W7'
p187
(dp188
g3
F42.35669783
sg4
F-71.09579218
sg5
VBaker House
p189
ssS'W5'
p190
(dp191
g3
F42.35691895
sg4
F-71.09510104
sg5
VGreen Hall
p192
ssS'W4'
p193
(dp194
g3
F42.35718324
sg4
F-71.09442242
sg5
VMcCormick Hall
p195
ssS'W2'
p196
(dp197
g3
F42.35725644
sg4
F-71.09383916
sg5
VBuilding W2
p198
ssS'W1'
p199
(dp200
g3
F42.35761762
sg4
F-71.09351071
sg5
VFariborz Maseeh Hall
p201
ssS'W16'
p202
(dp203
g3
F42.35813409
sg4
F-71.09505727
sg5
VKresge Auditorium
p204
ssS'NW30'
p205
(dp206
g3
F42.35864725
sg4
F-71.09997287
sg5
VThe Warehouse
p207
ssS'W15'
p208
(dp209
g3
F42.35832687
sg4
F-71.09412495
sg5
VChapel
p210
ssS'W79'
p211
(dp212
g3
F42.35710863
sg4
F-71.10152079
sg5
VSimmons Hall
p213
ssS'W8'
p214
(dp215
g3
F42.35531242
sg4
F-71.0968272
sg5
VPierce Boathouse
p216
ssS'W84'
p217
(dp218
g3
F42.35435176
sg4
F-71.1034795
sg5
VTang Hall
p219
ssS'W85'
p220
(dp221
g3
F42.35499775
sg4
F-71.10325779
sg5
VWestgate (Family Housing)
p222
ssS'W85FG'
p223
(dp224
g3
F42.35562303
sg4
F-71.10360025
sg5
VWestgate (FG)
p225
ssS'66'
p226
(dp227
g3
F42.3609215
sg4
F-71.08901794
sg5
VLandau Building
p228
ssS'51'
p229
(dp230
g3
F42.35851705
sg4
F-71.08773036
sg5
VWood Sailing Pavilion
p231
ssS'E15'
p232
(dp233
g3
F42.36083889
sg4
F-71.08763548
sg5
VWiesner Building
p234
ssS'W89'
p235
(dp236
g3
F42.35553858
sg4
F-71.10467329
sg5
VCampus Police
p237
ssS'E17'
p238
(dp239
g3
F42.36148438
sg4
F-71.08788625
sg5
VMudd Building
p240
ssS'NW14'
p241
(dp242
g3
F42.35963208
sg4
F-71.09789884
sg5
VFrancis Bitter Magnet Lab (NW14)
p243
ssS'NW35'
p244
(dp245
g3
F42.35879786
sg4
F-71.1014393
sg5
VAshdown House
p246
ssS'E55'
p247
(dp248
g3
F42.36173608
sg4
F-71.08390876
sg5
VEastgate (Family Housing)
p249
ssS'N51'
p250
(dp251
g3
F42.36228432
sg4
F-71.09762771
sg5
VBuilding N51
p252
ssS'E51'
p253
(dp254
g3
F42.36054229
sg4
F-71.08449763
sg5
VTang Center
p255
ssS'E53'
p256
(dp257
g3
F42.36118817
sg4
F-71.08359227
sg5
VHermann Building
p258
ssS'E52'
p259
(dp260
g3
F42.36073591
sg4
F-71.08367668
sg5
VSloan Building
p261
ssS'N57'
p262
(dp263
g3
F42.36301136
sg4
F-71.09882964
sg5
g113
ssS'W45'
p264
(dp265
g3
F42.35906989
sg4
F-71.09759322
sg5
VWest Garage
p266
ssS'48'
p267
(dp268
g3
F42.36243256
sg4
F-71.09066449
sg5
VParsons Laboratory
p269
ssS'GARAGE'
p270
(dp271
g3
F42.36203428
sg4
F-71.09278036
sg5
g142
ssS'E14'
p272
(dp273
g3
F42.36046359
sg4
F-71.08733248
sg5
VE14
p274
ssS'W53D'
p275
(dp276
g3
F42.35688479
sg4
F-71.09827006
sg5
VCarr Indoor Tennis Facility (SVC)
p277
ssS'W59'
p278
(dp279
g3
F42.35810547
sg4
F-71.0995509
sg5
VHeinz Building
p280
ssS'W53A'
p281
(dp282
g3
F42.35697791
sg4
F-71.09735146
sg5
VCarr Indoor Tennis Facility (Office)
p283
ssS'43'
p284
(dp285
g3
F42.36114668
sg4
F-71.09320949
sg5
VPower Plant Annex
p286
ssS'W53C'
p287
(dp288
g3
F42.35654948
sg4
F-71.09806175
sg5
VW53C
p289
ssS'W53B'
p290
(dp291
g3
F42.35696636
sg4
F-71.09694708
sg5
VDuPont Tennis Courts (Office)
p292
ssS'1'
p293
(dp294
g3
F42.35809173
sg4
F-71.09235679
sg5
VPierce Laboratory
p295
ssS'3'
p296
(dp297
g3
F42.3590034
sg4
F-71.09239888
sg5
VMaclaurin Buildings (3)
p298
ssS'WW15'
p299
(dp300
g3
F42.35536136
sg4
F-71.10946972
sg5
VBuilding WW15
p301
ssS'5'
p302
(dp303
g3
F42.35871452
sg4
F-71.09292322
sg5
VPratt School
p304
ssS'7'
p305
(dp306
g3
F42.35928952
sg4
F-71.09317868
sg5
VRogers Building
p307
ssS'9'
p308
(dp309
g3
F42.35974913
sg4
F-71.09356842
sg5
VBuilding 9
p310
ssS'NW22'
p311
(dp312
g3
F42.35963862
sg4
F-71.09972313
sg5
VPlasma Science & Fusion Center (NW22)
p313
ssS'NW21'
p314
(dp315
g3
F42.35906359
sg4
F-71.09914628
sg5
VPlasma Science & Fusion Center (NW21)
p316
ssS'NW20'
p317
(dp318
g3
F42.35929569
sg4
F-71.09847566
sg5
VAlbany St Generator Shelter
p319
ssS'E1'
p320
(dp321
g3
F42.35960249
sg4
F-71.08696429
sg5
VGray House
p322
ssS'E2'
p323
(dp324
g3
F42.35995437
sg4
F-71.08686692
sg5
VSenior House
p325
ssS'E40'
p326
(dp327
g3
F42.36116319
sg4
F-71.08485301
sg5
VMuckley Building
p328
ssS'N52'
p329
(dp330
g3
F42.36227273
sg4
F-71.09718824
sg5
VN52
p331
ssS'W53'
p332
(dp333
g3
F42.35692333
sg4
F-71.09780437
sg5
VCarr Indoor Tennis Facility
p334
ssS'W31'
p335
(dp336
g3
F42.35963775
sg4
F-71.09516824
sg5
VDu Pont Athletic Gymnasium
p337
ssS'76'
p338
(dp339
g3
F42.36230079
sg4
F-71.08922708
sg5
VThe David H. Koch Institute for Integrative Cancer Research at MIT
p340
ssS'W33'
p341
(dp342
g3
F42.35920175
sg4
F-71.09597193
sg5
VRockwell Cage
p343
ssS'W32'
p344
(dp345
g3
F42.35938896
sg4
F-71.09507334
sg5
VDu Pont Athletic Center
p346
ssS'W35'
p347
(dp348
g3
F42.35871121
sg4
F-71.0957528
sg5
VZesiger Sports and Fitness Center
p349
ssS'W34'
p350
(dp351
g3
F42.35859571
sg4
F-71.09652993
sg5
VJohnson Athletics Center
p352
ssS'13'
p353
(dp354
g3
F42.35994425
sg4
F-71.09254785
sg5
VBush Building
p355
ssS'NW16'
p356
(dp357
g3
F42.36003917
sg4
F-71.09872777
sg5
VPlasma Science & Fusion Center (NW16)
p358
ssS'NW17'
p359
(dp360
g3
F42.35985638
sg4
F-71.09914243
sg5
VPlasma Science & Fusion Center (NW17)
p361
ssS'39'
p362
(dp363
g3
F42.36085716
sg4
F-71.0927291
sg5
VBrown Building
p364
ssS'38'
p365
(dp366
g3
F42.36107479
sg4
F-71.0923481
sg5
VFairchild Building (38)
p367
ssS'N16'
p368
(dp369
g3
F42.36128717
sg4
F-71.09405385
sg5
VCooling Tower & Oil Reserve
p370
ssS'NW13'
p371
(dp372
g3
F42.3598849
sg4
F-71.09736187
sg5
VBuilding NW13
p373
ssS'NW10'
p374
(dp375
g3
F42.36031865
sg4
F-71.09813314
sg5
VEdgerton House
p376
ssS'33'
p377
(dp378
g3
F42.36017974
sg4
F-71.09374216
sg5
VGuggenheim Laboratory
p379
ssS'32'
p380
(dp381
g3
F42.36161284
sg4
F-71.09056786
sg5
VRay and Maria Stata Center
p382
ssS'31'
p383
(dp384
g3
F42.3603744
sg4
F-71.09306064
sg5
VSloan Laboratories
p385
ssS'37'
p386
(dp387
g3
F42.36068734
sg4
F-71.09323996
sg5
VMcNair Building
p388
ssS'36'
p389
(dp390
g3
F42.3614377
sg4
F-71.09165813
sg5
VFairchild Building (36)
p391
ssS'35'
p392
(dp393
g3
F42.3603823
sg4
F-71.0940274
sg5
VSloan Laboratory
p394
ssS'34'
p395
(dp396
g3
F42.36114702
sg4
F-71.09195491
sg5
VEG&G Education Center
p397
ssS'46'
p398
(dp399
g3
F42.36232777
sg4
F-71.09164294
sg5
VBrain and Cognitive Sciences
p400
ssS'WOOD'
p401
(dp402
g3
F42.35851705
sg4
F-71.08773036
sg5
g231
ssS'W51'
p403
(dp404
g3
F42.3559694
sg4
F-71.09812433
sg5
VBurton-Conner House
p405
ssS'44'
p406
(dp407
g3
F42.36160774
sg4
F-71.09246721
sg5
VCyclotron
p408
ssS'W92'
p409
(dp410
g3
F42.35492042
sg4
F-71.1046169
sg5
VBuilding W92
p411
ss.